ARM GAS  A:\Temp\cc1khV3x.s 			page 1


   1              		.cpu cortex-m3
   2              		.eabi_attribute 20, 1
   3              		.eabi_attribute 21, 1
   4              		.eabi_attribute 23, 3
   5              		.eabi_attribute 24, 1
   6              		.eabi_attribute 25, 1
   7              		.eabi_attribute 26, 1
   8              		.eabi_attribute 30, 1
   9              		.eabi_attribute 34, 1
  10              		.eabi_attribute 18, 4
  11              		.file	"main.c"
  12              		.text
  13              	.Ltext0:
  14              		.cfi_sections	.debug_frame
  15              		.section	.text.MX_GPIO_Init,"ax",%progbits
  16              		.align	1
  17              		.arch armv7-m
  18              		.syntax unified
  19              		.thumb
  20              		.thumb_func
  21              		.fpu softvfp
  23              	MX_GPIO_Init:
  24              	.LFB67:
  25              		.file 1 "Core/Src/main.c"
   1:Core/Src/main.c **** /* USER CODE BEGIN Header */
   2:Core/Src/main.c **** /**
   3:Core/Src/main.c ****   ******************************************************************************
   4:Core/Src/main.c ****   * @file           : main.c
   5:Core/Src/main.c ****   * @brief          : Main program body
   6:Core/Src/main.c ****   ******************************************************************************
   7:Core/Src/main.c ****   * @attention
   8:Core/Src/main.c ****   *
   9:Core/Src/main.c ****   * <h2><center>&copy; Copyright (c) 2021 STMicroelectronics.
  10:Core/Src/main.c ****   * All rights reserved.</center></h2>
  11:Core/Src/main.c ****   *
  12:Core/Src/main.c ****   * This software component is licensed by ST under BSD 3-Clause license,
  13:Core/Src/main.c ****   * the "License"; You may not use this file except in compliance with the
  14:Core/Src/main.c ****   * License. You may obtain a copy of the License at:
  15:Core/Src/main.c ****   *                        opensource.org/licenses/BSD-3-Clause
  16:Core/Src/main.c ****   *
  17:Core/Src/main.c ****   ******************************************************************************
  18:Core/Src/main.c ****   */
  19:Core/Src/main.c **** /* USER CODE END Header */
  20:Core/Src/main.c **** /* Includes ------------------------------------------------------------------*/
  21:Core/Src/main.c **** #include "main.h"
  22:Core/Src/main.c **** 
  23:Core/Src/main.c **** /* Private includes ----------------------------------------------------------*/
  24:Core/Src/main.c **** /* USER CODE BEGIN Includes */
  25:Core/Src/main.c **** 
  26:Core/Src/main.c **** /* USER CODE END Includes */
  27:Core/Src/main.c **** 
  28:Core/Src/main.c **** /* Private typedef -----------------------------------------------------------*/
  29:Core/Src/main.c **** /* USER CODE BEGIN PTD */
  30:Core/Src/main.c **** 
  31:Core/Src/main.c **** /* USER CODE END PTD */
  32:Core/Src/main.c **** 
  33:Core/Src/main.c **** /* Private define ------------------------------------------------------------*/
ARM GAS  A:\Temp\cc1khV3x.s 			page 2


  34:Core/Src/main.c **** /* USER CODE BEGIN PD */
  35:Core/Src/main.c **** /* USER CODE END PD */
  36:Core/Src/main.c **** 
  37:Core/Src/main.c **** /* Private macro -------------------------------------------------------------*/
  38:Core/Src/main.c **** /* USER CODE BEGIN PM */
  39:Core/Src/main.c **** 
  40:Core/Src/main.c **** /* USER CODE END PM */
  41:Core/Src/main.c **** 
  42:Core/Src/main.c **** /* Private variables ---------------------------------------------------------*/
  43:Core/Src/main.c **** 
  44:Core/Src/main.c **** /* USER CODE BEGIN PV */
  45:Core/Src/main.c **** 
  46:Core/Src/main.c **** /* USER CODE END PV */
  47:Core/Src/main.c **** 
  48:Core/Src/main.c **** /* Private function prototypes -----------------------------------------------*/
  49:Core/Src/main.c **** void SystemClock_Config(void);
  50:Core/Src/main.c **** static void MX_GPIO_Init(void);
  51:Core/Src/main.c **** /* USER CODE BEGIN PFP */
  52:Core/Src/main.c **** 
  53:Core/Src/main.c **** /* USER CODE END PFP */
  54:Core/Src/main.c **** 
  55:Core/Src/main.c **** /* Private user code ---------------------------------------------------------*/
  56:Core/Src/main.c **** /* USER CODE BEGIN 0 */
  57:Core/Src/main.c **** 
  58:Core/Src/main.c **** /* USER CODE END 0 */
  59:Core/Src/main.c **** 
  60:Core/Src/main.c **** /**
  61:Core/Src/main.c ****   * @brief  The application entry point.
  62:Core/Src/main.c ****   * @retval int
  63:Core/Src/main.c ****   */
  64:Core/Src/main.c **** int main(void)
  65:Core/Src/main.c **** {
  66:Core/Src/main.c ****   /* USER CODE BEGIN 1 */
  67:Core/Src/main.c **** 
  68:Core/Src/main.c ****   /* USER CODE END 1 */
  69:Core/Src/main.c **** 
  70:Core/Src/main.c ****   /* MCU Configuration--------------------------------------------------------*/
  71:Core/Src/main.c **** 
  72:Core/Src/main.c ****   /* Reset of all peripherals, Initializes the Flash interface and the Systick. */
  73:Core/Src/main.c ****   HAL_Init();
  74:Core/Src/main.c **** 
  75:Core/Src/main.c ****   /* USER CODE BEGIN Init */
  76:Core/Src/main.c **** 
  77:Core/Src/main.c ****   /* USER CODE END Init */
  78:Core/Src/main.c **** 
  79:Core/Src/main.c ****   /* Configure the system clock */
  80:Core/Src/main.c ****   SystemClock_Config();
  81:Core/Src/main.c **** 
  82:Core/Src/main.c ****   /* USER CODE BEGIN SysInit */
  83:Core/Src/main.c **** 
  84:Core/Src/main.c ****   /* USER CODE END SysInit */
  85:Core/Src/main.c **** 
  86:Core/Src/main.c ****   /* Initialize all configured peripherals */
  87:Core/Src/main.c ****   MX_GPIO_Init();
  88:Core/Src/main.c ****   /* USER CODE BEGIN 2 */
  89:Core/Src/main.c ****     // int myMain();
  90:Core/Src/main.c ****     //myMain();
ARM GAS  A:\Temp\cc1khV3x.s 			page 3


  91:Core/Src/main.c **** 
  92:Core/Src/main.c ****     HAL_GPIO_TogglePin(LED1_GPIO_Port, LED1_Pin);
  93:Core/Src/main.c ****     HAL_GPIO_TogglePin(LED2_GPIO_Port, LED2_Pin);
  94:Core/Src/main.c ****     HAL_GPIO_TogglePin(LED3_GPIO_Port, LED3_Pin);
  95:Core/Src/main.c ****   /* USER CODE END 2 */
  96:Core/Src/main.c **** 
  97:Core/Src/main.c ****   /* Infinite loop */
  98:Core/Src/main.c ****   /* USER CODE BEGIN WHILE */
  99:Core/Src/main.c ****   while (1)
 100:Core/Src/main.c ****   {
 101:Core/Src/main.c ****     /* USER CODE END WHILE */
 102:Core/Src/main.c **** 
 103:Core/Src/main.c ****     /* USER CODE BEGIN 3 */
 104:Core/Src/main.c ****   }
 105:Core/Src/main.c ****   /* USER CODE END 3 */
 106:Core/Src/main.c **** }
 107:Core/Src/main.c **** 
 108:Core/Src/main.c **** /**
 109:Core/Src/main.c ****   * @brief System Clock Configuration
 110:Core/Src/main.c ****   * @retval None
 111:Core/Src/main.c ****   */
 112:Core/Src/main.c **** void SystemClock_Config(void)
 113:Core/Src/main.c **** {
 114:Core/Src/main.c ****   RCC_OscInitTypeDef RCC_OscInitStruct = {0};
 115:Core/Src/main.c ****   RCC_ClkInitTypeDef RCC_ClkInitStruct = {0};
 116:Core/Src/main.c **** 
 117:Core/Src/main.c ****   /** Initializes the RCC Oscillators according to the specified parameters
 118:Core/Src/main.c ****   * in the RCC_OscInitTypeDef structure.
 119:Core/Src/main.c ****   */
 120:Core/Src/main.c ****   RCC_OscInitStruct.OscillatorType = RCC_OSCILLATORTYPE_HSE;
 121:Core/Src/main.c ****   RCC_OscInitStruct.HSEState = RCC_HSE_ON;
 122:Core/Src/main.c ****   RCC_OscInitStruct.HSEPredivValue = RCC_HSE_PREDIV_DIV1;
 123:Core/Src/main.c ****   RCC_OscInitStruct.HSIState = RCC_HSI_ON;
 124:Core/Src/main.c ****   RCC_OscInitStruct.PLL.PLLState = RCC_PLL_ON;
 125:Core/Src/main.c ****   RCC_OscInitStruct.PLL.PLLSource = RCC_PLLSOURCE_HSE;
 126:Core/Src/main.c ****   RCC_OscInitStruct.PLL.PLLMUL = RCC_PLL_MUL9;
 127:Core/Src/main.c ****   if (HAL_RCC_OscConfig(&RCC_OscInitStruct) != HAL_OK)
 128:Core/Src/main.c ****   {
 129:Core/Src/main.c ****     Error_Handler();
 130:Core/Src/main.c ****   }
 131:Core/Src/main.c ****   /** Initializes the CPU, AHB and APB buses clocks
 132:Core/Src/main.c ****   */
 133:Core/Src/main.c ****   RCC_ClkInitStruct.ClockType = RCC_CLOCKTYPE_HCLK|RCC_CLOCKTYPE_SYSCLK
 134:Core/Src/main.c ****                               |RCC_CLOCKTYPE_PCLK1|RCC_CLOCKTYPE_PCLK2;
 135:Core/Src/main.c ****   RCC_ClkInitStruct.SYSCLKSource = RCC_SYSCLKSOURCE_PLLCLK;
 136:Core/Src/main.c ****   RCC_ClkInitStruct.AHBCLKDivider = RCC_SYSCLK_DIV1;
 137:Core/Src/main.c ****   RCC_ClkInitStruct.APB1CLKDivider = RCC_HCLK_DIV2;
 138:Core/Src/main.c ****   RCC_ClkInitStruct.APB2CLKDivider = RCC_HCLK_DIV1;
 139:Core/Src/main.c **** 
 140:Core/Src/main.c ****   if (HAL_RCC_ClockConfig(&RCC_ClkInitStruct, FLASH_LATENCY_2) != HAL_OK)
 141:Core/Src/main.c ****   {
 142:Core/Src/main.c ****     Error_Handler();
 143:Core/Src/main.c ****   }
 144:Core/Src/main.c **** }
 145:Core/Src/main.c **** 
 146:Core/Src/main.c **** /**
 147:Core/Src/main.c ****   * @brief GPIO Initialization Function
ARM GAS  A:\Temp\cc1khV3x.s 			page 4


 148:Core/Src/main.c ****   * @param None
 149:Core/Src/main.c ****   * @retval None
 150:Core/Src/main.c ****   */
 151:Core/Src/main.c **** static void MX_GPIO_Init(void)
 152:Core/Src/main.c **** {
  26              		.loc 1 152 1 view -0
  27              		.cfi_startproc
  28              		@ args = 0, pretend = 0, frame = 32
  29              		@ frame_needed = 0, uses_anonymous_args = 0
  30 0000 2DE9F041 		push	{r4, r5, r6, r7, r8, lr}
  31              	.LCFI0:
  32              		.cfi_def_cfa_offset 24
  33              		.cfi_offset 4, -24
  34              		.cfi_offset 5, -20
  35              		.cfi_offset 6, -16
  36              		.cfi_offset 7, -12
  37              		.cfi_offset 8, -8
  38              		.cfi_offset 14, -4
  39 0004 88B0     		sub	sp, sp, #32
  40              	.LCFI1:
  41              		.cfi_def_cfa_offset 56
 153:Core/Src/main.c ****   GPIO_InitTypeDef GPIO_InitStruct = {0};
  42              		.loc 1 153 3 view .LVU1
  43              		.loc 1 153 20 is_stmt 0 view .LVU2
  44 0006 0024     		movs	r4, #0
  45 0008 0494     		str	r4, [sp, #16]
  46 000a 0594     		str	r4, [sp, #20]
  47 000c 0694     		str	r4, [sp, #24]
  48 000e 0794     		str	r4, [sp, #28]
 154:Core/Src/main.c **** 
 155:Core/Src/main.c ****   /* GPIO Ports Clock Enable */
 156:Core/Src/main.c ****   __HAL_RCC_GPIOD_CLK_ENABLE();
  49              		.loc 1 156 3 is_stmt 1 view .LVU3
  50              	.LBB2:
  51              		.loc 1 156 3 view .LVU4
  52              		.loc 1 156 3 view .LVU5
  53 0010 1F4B     		ldr	r3, .L3
  54 0012 9A69     		ldr	r2, [r3, #24]
  55 0014 42F02002 		orr	r2, r2, #32
  56 0018 9A61     		str	r2, [r3, #24]
  57              		.loc 1 156 3 view .LVU6
  58 001a 9A69     		ldr	r2, [r3, #24]
  59 001c 02F02002 		and	r2, r2, #32
  60 0020 0192     		str	r2, [sp, #4]
  61              		.loc 1 156 3 view .LVU7
  62 0022 019A     		ldr	r2, [sp, #4]
  63              	.LBE2:
  64              		.loc 1 156 3 view .LVU8
 157:Core/Src/main.c ****   __HAL_RCC_GPIOA_CLK_ENABLE();
  65              		.loc 1 157 3 view .LVU9
  66              	.LBB3:
  67              		.loc 1 157 3 view .LVU10
  68              		.loc 1 157 3 view .LVU11
  69 0024 9A69     		ldr	r2, [r3, #24]
  70 0026 42F00402 		orr	r2, r2, #4
  71 002a 9A61     		str	r2, [r3, #24]
  72              		.loc 1 157 3 view .LVU12
ARM GAS  A:\Temp\cc1khV3x.s 			page 5


  73 002c 9A69     		ldr	r2, [r3, #24]
  74 002e 02F00402 		and	r2, r2, #4
  75 0032 0292     		str	r2, [sp, #8]
  76              		.loc 1 157 3 view .LVU13
  77 0034 029A     		ldr	r2, [sp, #8]
  78              	.LBE3:
  79              		.loc 1 157 3 view .LVU14
 158:Core/Src/main.c ****   __HAL_RCC_GPIOB_CLK_ENABLE();
  80              		.loc 1 158 3 view .LVU15
  81              	.LBB4:
  82              		.loc 1 158 3 view .LVU16
  83              		.loc 1 158 3 view .LVU17
  84 0036 9A69     		ldr	r2, [r3, #24]
  85 0038 42F00802 		orr	r2, r2, #8
  86 003c 9A61     		str	r2, [r3, #24]
  87              		.loc 1 158 3 view .LVU18
  88 003e 9B69     		ldr	r3, [r3, #24]
  89 0040 03F00803 		and	r3, r3, #8
  90 0044 0393     		str	r3, [sp, #12]
  91              		.loc 1 158 3 view .LVU19
  92 0046 039B     		ldr	r3, [sp, #12]
  93              	.LBE4:
  94              		.loc 1 158 3 view .LVU20
 159:Core/Src/main.c **** 
 160:Core/Src/main.c ****   /*Configure GPIO pin Output Level */
 161:Core/Src/main.c ****   HAL_GPIO_WritePin(GPIOA, LED1_Pin|LED2_Pin, GPIO_PIN_RESET);
  95              		.loc 1 161 3 view .LVU21
  96 0048 DFF84C80 		ldr	r8, .L3+8
  97 004c 2246     		mov	r2, r4
  98 004e C021     		movs	r1, #192
  99 0050 4046     		mov	r0, r8
 100 0052 FFF7FEFF 		bl	HAL_GPIO_WritePin
 101              	.LVL0:
 162:Core/Src/main.c **** 
 163:Core/Src/main.c ****   /*Configure GPIO pin Output Level */
 164:Core/Src/main.c ****   HAL_GPIO_WritePin(LED3_GPIO_Port, LED3_Pin, GPIO_PIN_RESET);
 102              		.loc 1 164 3 view .LVU22
 103 0056 0F4E     		ldr	r6, .L3+4
 104 0058 2246     		mov	r2, r4
 105 005a 0121     		movs	r1, #1
 106 005c 3046     		mov	r0, r6
 107 005e FFF7FEFF 		bl	HAL_GPIO_WritePin
 108              	.LVL1:
 165:Core/Src/main.c **** 
 166:Core/Src/main.c ****   /*Configure GPIO pins : LED1_Pin LED2_Pin */
 167:Core/Src/main.c ****   GPIO_InitStruct.Pin = LED1_Pin|LED2_Pin;
 109              		.loc 1 167 3 view .LVU23
 110              		.loc 1 167 23 is_stmt 0 view .LVU24
 111 0062 C023     		movs	r3, #192
 112 0064 0493     		str	r3, [sp, #16]
 168:Core/Src/main.c ****   GPIO_InitStruct.Mode = GPIO_MODE_OUTPUT_PP;
 113              		.loc 1 168 3 is_stmt 1 view .LVU25
 114              		.loc 1 168 24 is_stmt 0 view .LVU26
 115 0066 0125     		movs	r5, #1
 116 0068 0595     		str	r5, [sp, #20]
 169:Core/Src/main.c ****   GPIO_InitStruct.Pull = GPIO_NOPULL;
 117              		.loc 1 169 3 is_stmt 1 view .LVU27
ARM GAS  A:\Temp\cc1khV3x.s 			page 6


 118              		.loc 1 169 24 is_stmt 0 view .LVU28
 119 006a 0694     		str	r4, [sp, #24]
 170:Core/Src/main.c ****   GPIO_InitStruct.Speed = GPIO_SPEED_FREQ_LOW;
 120              		.loc 1 170 3 is_stmt 1 view .LVU29
 121              		.loc 1 170 25 is_stmt 0 view .LVU30
 122 006c 0227     		movs	r7, #2
 123 006e 0797     		str	r7, [sp, #28]
 171:Core/Src/main.c ****   HAL_GPIO_Init(GPIOA, &GPIO_InitStruct);
 124              		.loc 1 171 3 is_stmt 1 view .LVU31
 125 0070 04A9     		add	r1, sp, #16
 126 0072 4046     		mov	r0, r8
 127 0074 FFF7FEFF 		bl	HAL_GPIO_Init
 128              	.LVL2:
 172:Core/Src/main.c **** 
 173:Core/Src/main.c ****   /*Configure GPIO pin : LED3_Pin */
 174:Core/Src/main.c ****   GPIO_InitStruct.Pin = LED3_Pin;
 129              		.loc 1 174 3 view .LVU32
 130              		.loc 1 174 23 is_stmt 0 view .LVU33
 131 0078 0495     		str	r5, [sp, #16]
 175:Core/Src/main.c ****   GPIO_InitStruct.Mode = GPIO_MODE_OUTPUT_PP;
 132              		.loc 1 175 3 is_stmt 1 view .LVU34
 133              		.loc 1 175 24 is_stmt 0 view .LVU35
 134 007a 0595     		str	r5, [sp, #20]
 176:Core/Src/main.c ****   GPIO_InitStruct.Pull = GPIO_NOPULL;
 135              		.loc 1 176 3 is_stmt 1 view .LVU36
 136              		.loc 1 176 24 is_stmt 0 view .LVU37
 137 007c 0694     		str	r4, [sp, #24]
 177:Core/Src/main.c ****   GPIO_InitStruct.Speed = GPIO_SPEED_FREQ_LOW;
 138              		.loc 1 177 3 is_stmt 1 view .LVU38
 139              		.loc 1 177 25 is_stmt 0 view .LVU39
 140 007e 0797     		str	r7, [sp, #28]
 178:Core/Src/main.c ****   HAL_GPIO_Init(LED3_GPIO_Port, &GPIO_InitStruct);
 141              		.loc 1 178 3 is_stmt 1 view .LVU40
 142 0080 04A9     		add	r1, sp, #16
 143 0082 3046     		mov	r0, r6
 144 0084 FFF7FEFF 		bl	HAL_GPIO_Init
 145              	.LVL3:
 179:Core/Src/main.c **** 
 180:Core/Src/main.c **** }
 146              		.loc 1 180 1 is_stmt 0 view .LVU41
 147 0088 08B0     		add	sp, sp, #32
 148              	.LCFI2:
 149              		.cfi_def_cfa_offset 24
 150              		@ sp needed
 151 008a BDE8F081 		pop	{r4, r5, r6, r7, r8, pc}
 152              	.L4:
 153 008e 00BF     		.align	2
 154              	.L3:
 155 0090 00100240 		.word	1073876992
 156 0094 000C0140 		.word	1073810432
 157 0098 00080140 		.word	1073809408
 158              		.cfi_endproc
 159              	.LFE67:
 161              		.section	.text.SystemClock_Config,"ax",%progbits
 162              		.align	1
 163              		.global	SystemClock_Config
 164              		.syntax unified
ARM GAS  A:\Temp\cc1khV3x.s 			page 7


 165              		.thumb
 166              		.thumb_func
 167              		.fpu softvfp
 169              	SystemClock_Config:
 170              	.LFB66:
 113:Core/Src/main.c ****   RCC_OscInitTypeDef RCC_OscInitStruct = {0};
 171              		.loc 1 113 1 is_stmt 1 view -0
 172              		.cfi_startproc
 173              		@ args = 0, pretend = 0, frame = 64
 174              		@ frame_needed = 0, uses_anonymous_args = 0
 175 0000 30B5     		push	{r4, r5, lr}
 176              	.LCFI3:
 177              		.cfi_def_cfa_offset 12
 178              		.cfi_offset 4, -12
 179              		.cfi_offset 5, -8
 180              		.cfi_offset 14, -4
 181 0002 91B0     		sub	sp, sp, #68
 182              	.LCFI4:
 183              		.cfi_def_cfa_offset 80
 114:Core/Src/main.c ****   RCC_ClkInitTypeDef RCC_ClkInitStruct = {0};
 184              		.loc 1 114 3 view .LVU43
 114:Core/Src/main.c ****   RCC_ClkInitTypeDef RCC_ClkInitStruct = {0};
 185              		.loc 1 114 22 is_stmt 0 view .LVU44
 186 0004 0024     		movs	r4, #0
 187 0006 0994     		str	r4, [sp, #36]
 188 0008 0B94     		str	r4, [sp, #44]
 189 000a 0C94     		str	r4, [sp, #48]
 115:Core/Src/main.c **** 
 190              		.loc 1 115 3 is_stmt 1 view .LVU45
 115:Core/Src/main.c **** 
 191              		.loc 1 115 22 is_stmt 0 view .LVU46
 192 000c 0194     		str	r4, [sp, #4]
 193 000e 0294     		str	r4, [sp, #8]
 194 0010 0394     		str	r4, [sp, #12]
 195 0012 0494     		str	r4, [sp, #16]
 196 0014 0594     		str	r4, [sp, #20]
 120:Core/Src/main.c ****   RCC_OscInitStruct.HSEState = RCC_HSE_ON;
 197              		.loc 1 120 3 is_stmt 1 view .LVU47
 120:Core/Src/main.c ****   RCC_OscInitStruct.HSEState = RCC_HSE_ON;
 198              		.loc 1 120 36 is_stmt 0 view .LVU48
 199 0016 0122     		movs	r2, #1
 200 0018 0692     		str	r2, [sp, #24]
 121:Core/Src/main.c ****   RCC_OscInitStruct.HSEPredivValue = RCC_HSE_PREDIV_DIV1;
 201              		.loc 1 121 3 is_stmt 1 view .LVU49
 121:Core/Src/main.c ****   RCC_OscInitStruct.HSEPredivValue = RCC_HSE_PREDIV_DIV1;
 202              		.loc 1 121 30 is_stmt 0 view .LVU50
 203 001a 4FF48033 		mov	r3, #65536
 204 001e 0793     		str	r3, [sp, #28]
 122:Core/Src/main.c ****   RCC_OscInitStruct.HSIState = RCC_HSI_ON;
 205              		.loc 1 122 3 is_stmt 1 view .LVU51
 122:Core/Src/main.c ****   RCC_OscInitStruct.HSIState = RCC_HSI_ON;
 206              		.loc 1 122 36 is_stmt 0 view .LVU52
 207 0020 0894     		str	r4, [sp, #32]
 123:Core/Src/main.c ****   RCC_OscInitStruct.PLL.PLLState = RCC_PLL_ON;
 208              		.loc 1 123 3 is_stmt 1 view .LVU53
 123:Core/Src/main.c ****   RCC_OscInitStruct.PLL.PLLState = RCC_PLL_ON;
 209              		.loc 1 123 30 is_stmt 0 view .LVU54
ARM GAS  A:\Temp\cc1khV3x.s 			page 8


 210 0022 0A92     		str	r2, [sp, #40]
 124:Core/Src/main.c ****   RCC_OscInitStruct.PLL.PLLSource = RCC_PLLSOURCE_HSE;
 211              		.loc 1 124 3 is_stmt 1 view .LVU55
 124:Core/Src/main.c ****   RCC_OscInitStruct.PLL.PLLSource = RCC_PLLSOURCE_HSE;
 212              		.loc 1 124 34 is_stmt 0 view .LVU56
 213 0024 0225     		movs	r5, #2
 214 0026 0D95     		str	r5, [sp, #52]
 125:Core/Src/main.c ****   RCC_OscInitStruct.PLL.PLLMUL = RCC_PLL_MUL9;
 215              		.loc 1 125 3 is_stmt 1 view .LVU57
 125:Core/Src/main.c ****   RCC_OscInitStruct.PLL.PLLMUL = RCC_PLL_MUL9;
 216              		.loc 1 125 35 is_stmt 0 view .LVU58
 217 0028 0E93     		str	r3, [sp, #56]
 126:Core/Src/main.c ****   if (HAL_RCC_OscConfig(&RCC_OscInitStruct) != HAL_OK)
 218              		.loc 1 126 3 is_stmt 1 view .LVU59
 126:Core/Src/main.c ****   if (HAL_RCC_OscConfig(&RCC_OscInitStruct) != HAL_OK)
 219              		.loc 1 126 32 is_stmt 0 view .LVU60
 220 002a 4FF4E013 		mov	r3, #1835008
 221 002e 0F93     		str	r3, [sp, #60]
 127:Core/Src/main.c ****   {
 222              		.loc 1 127 3 is_stmt 1 view .LVU61
 127:Core/Src/main.c ****   {
 223              		.loc 1 127 7 is_stmt 0 view .LVU62
 224 0030 06A8     		add	r0, sp, #24
 225 0032 FFF7FEFF 		bl	HAL_RCC_OscConfig
 226              	.LVL4:
 133:Core/Src/main.c ****                               |RCC_CLOCKTYPE_PCLK1|RCC_CLOCKTYPE_PCLK2;
 227              		.loc 1 133 3 is_stmt 1 view .LVU63
 133:Core/Src/main.c ****                               |RCC_CLOCKTYPE_PCLK1|RCC_CLOCKTYPE_PCLK2;
 228              		.loc 1 133 31 is_stmt 0 view .LVU64
 229 0036 0F23     		movs	r3, #15
 230 0038 0193     		str	r3, [sp, #4]
 135:Core/Src/main.c ****   RCC_ClkInitStruct.AHBCLKDivider = RCC_SYSCLK_DIV1;
 231              		.loc 1 135 3 is_stmt 1 view .LVU65
 135:Core/Src/main.c ****   RCC_ClkInitStruct.AHBCLKDivider = RCC_SYSCLK_DIV1;
 232              		.loc 1 135 34 is_stmt 0 view .LVU66
 233 003a 0295     		str	r5, [sp, #8]
 136:Core/Src/main.c ****   RCC_ClkInitStruct.APB1CLKDivider = RCC_HCLK_DIV2;
 234              		.loc 1 136 3 is_stmt 1 view .LVU67
 136:Core/Src/main.c ****   RCC_ClkInitStruct.APB1CLKDivider = RCC_HCLK_DIV2;
 235              		.loc 1 136 35 is_stmt 0 view .LVU68
 236 003c 0394     		str	r4, [sp, #12]
 137:Core/Src/main.c ****   RCC_ClkInitStruct.APB2CLKDivider = RCC_HCLK_DIV1;
 237              		.loc 1 137 3 is_stmt 1 view .LVU69
 137:Core/Src/main.c ****   RCC_ClkInitStruct.APB2CLKDivider = RCC_HCLK_DIV1;
 238              		.loc 1 137 36 is_stmt 0 view .LVU70
 239 003e 4FF48063 		mov	r3, #1024
 240 0042 0493     		str	r3, [sp, #16]
 138:Core/Src/main.c **** 
 241              		.loc 1 138 3 is_stmt 1 view .LVU71
 138:Core/Src/main.c **** 
 242              		.loc 1 138 36 is_stmt 0 view .LVU72
 243 0044 0594     		str	r4, [sp, #20]
 140:Core/Src/main.c ****   {
 244              		.loc 1 140 3 is_stmt 1 view .LVU73
 140:Core/Src/main.c ****   {
 245              		.loc 1 140 7 is_stmt 0 view .LVU74
 246 0046 2946     		mov	r1, r5
ARM GAS  A:\Temp\cc1khV3x.s 			page 9


 247 0048 01A8     		add	r0, sp, #4
 248 004a FFF7FEFF 		bl	HAL_RCC_ClockConfig
 249              	.LVL5:
 144:Core/Src/main.c **** 
 250              		.loc 1 144 1 view .LVU75
 251 004e 11B0     		add	sp, sp, #68
 252              	.LCFI5:
 253              		.cfi_def_cfa_offset 12
 254              		@ sp needed
 255 0050 30BD     		pop	{r4, r5, pc}
 256              		.cfi_endproc
 257              	.LFE66:
 259              		.section	.text.main,"ax",%progbits
 260              		.align	1
 261              		.global	main
 262              		.syntax unified
 263              		.thumb
 264              		.thumb_func
 265              		.fpu softvfp
 267              	main:
 268              	.LFB65:
  65:Core/Src/main.c ****   /* USER CODE BEGIN 1 */
 269              		.loc 1 65 1 is_stmt 1 view -0
 270              		.cfi_startproc
 271              		@ Volatile: function does not return.
 272              		@ args = 0, pretend = 0, frame = 0
 273              		@ frame_needed = 0, uses_anonymous_args = 0
 274 0000 08B5     		push	{r3, lr}
 275              	.LCFI6:
 276              		.cfi_def_cfa_offset 8
 277              		.cfi_offset 3, -8
 278              		.cfi_offset 14, -4
  73:Core/Src/main.c **** 
 279              		.loc 1 73 3 view .LVU77
 280 0002 FFF7FEFF 		bl	HAL_Init
 281              	.LVL6:
  80:Core/Src/main.c **** 
 282              		.loc 1 80 3 view .LVU78
 283 0006 FFF7FEFF 		bl	SystemClock_Config
 284              	.LVL7:
  87:Core/Src/main.c ****   /* USER CODE BEGIN 2 */
 285              		.loc 1 87 3 view .LVU79
 286 000a FFF7FEFF 		bl	MX_GPIO_Init
 287              	.LVL8:
  92:Core/Src/main.c ****     HAL_GPIO_TogglePin(LED2_GPIO_Port, LED2_Pin);
 288              		.loc 1 92 5 view .LVU80
 289 000e 074C     		ldr	r4, .L10
 290 0010 4021     		movs	r1, #64
 291 0012 2046     		mov	r0, r4
 292 0014 FFF7FEFF 		bl	HAL_GPIO_TogglePin
 293              	.LVL9:
  93:Core/Src/main.c ****     HAL_GPIO_TogglePin(LED3_GPIO_Port, LED3_Pin);
 294              		.loc 1 93 5 view .LVU81
 295 0018 8021     		movs	r1, #128
 296 001a 2046     		mov	r0, r4
 297 001c FFF7FEFF 		bl	HAL_GPIO_TogglePin
 298              	.LVL10:
ARM GAS  A:\Temp\cc1khV3x.s 			page 10


  94:Core/Src/main.c ****   /* USER CODE END 2 */
 299              		.loc 1 94 5 view .LVU82
 300 0020 0121     		movs	r1, #1
 301 0022 0348     		ldr	r0, .L10+4
 302 0024 FFF7FEFF 		bl	HAL_GPIO_TogglePin
 303              	.LVL11:
 304              	.L8:
  99:Core/Src/main.c ****   {
 305              		.loc 1 99 3 discriminator 1 view .LVU83
 104:Core/Src/main.c ****   /* USER CODE END 3 */
 306              		.loc 1 104 3 discriminator 1 view .LVU84
  99:Core/Src/main.c ****   {
 307              		.loc 1 99 9 discriminator 1 view .LVU85
 308 0028 FEE7     		b	.L8
 309              	.L11:
 310 002a 00BF     		.align	2
 311              	.L10:
 312 002c 00080140 		.word	1073809408
 313 0030 000C0140 		.word	1073810432
 314              		.cfi_endproc
 315              	.LFE65:
 317              		.section	.text.Error_Handler,"ax",%progbits
 318              		.align	1
 319              		.global	Error_Handler
 320              		.syntax unified
 321              		.thumb
 322              		.thumb_func
 323              		.fpu softvfp
 325              	Error_Handler:
 326              	.LFB68:
 181:Core/Src/main.c **** 
 182:Core/Src/main.c **** /* USER CODE BEGIN 4 */
 183:Core/Src/main.c **** 
 184:Core/Src/main.c **** /* USER CODE END 4 */
 185:Core/Src/main.c **** 
 186:Core/Src/main.c **** /**
 187:Core/Src/main.c ****   * @brief  This function is executed in case of error occurrence.
 188:Core/Src/main.c ****   * @retval None
 189:Core/Src/main.c ****   */
 190:Core/Src/main.c **** void Error_Handler(void)
 191:Core/Src/main.c **** {
 327              		.loc 1 191 1 view -0
 328              		.cfi_startproc
 329              		@ args = 0, pretend = 0, frame = 0
 330              		@ frame_needed = 0, uses_anonymous_args = 0
 331              		@ link register save eliminated.
 192:Core/Src/main.c ****   /* USER CODE BEGIN Error_Handler_Debug */
 193:Core/Src/main.c ****   /* User can add his own implementation to report the HAL error return state */
 194:Core/Src/main.c **** 
 195:Core/Src/main.c ****   /* USER CODE END Error_Handler_Debug */
 196:Core/Src/main.c **** }
 332              		.loc 1 196 1 view .LVU87
 333 0000 7047     		bx	lr
 334              		.cfi_endproc
 335              	.LFE68:
 337              		.text
 338              	.Letext0:
ARM GAS  A:\Temp\cc1khV3x.s 			page 11


 339              		.file 2 "c:\\embeshell\\toolchains\\arm-none-eabi\\9.2020q2\\arm-none-eabi\\include\\machine\\_def
 340              		.file 3 "c:\\embeshell\\toolchains\\arm-none-eabi\\9.2020q2\\arm-none-eabi\\include\\sys\\_stdint.
 341              		.file 4 "Drivers/CMSIS/Include/core_cm3.h"
 342              		.file 5 "Drivers/CMSIS/Device/ST/STM32F1xx/Include/system_stm32f1xx.h"
 343              		.file 6 "Drivers/CMSIS/Device/ST/STM32F1xx/Include/stm32f103xb.h"
 344              		.file 7 "Drivers/STM32F1xx_HAL_Driver/Inc/stm32f1xx_hal_rcc.h"
 345              		.file 8 "Drivers/STM32F1xx_HAL_Driver/Inc/stm32f1xx_hal_rcc_ex.h"
 346              		.file 9 "Drivers/STM32F1xx_HAL_Driver/Inc/stm32f1xx_hal_gpio.h"
 347              		.file 10 "Drivers/STM32F1xx_HAL_Driver/Inc/stm32f1xx_hal_def.h"
 348              		.file 11 "Drivers/STM32F1xx_HAL_Driver/Inc/stm32f1xx_hal.h"
ARM GAS  A:\Temp\cc1khV3x.s 			page 12

